; Function Attrs: nounwind uwtable
define hidden i32 @_mi_prim_alloc_huge_os_pages(ptr noundef %0, i64 noundef %1, i32 noundef %2, ptr noundef writeonly captures(none) initializes((0, 1)) %3, ptr noundef captures(none) initializes((0, 8)) %4) local_unnamed_addr #0 {
  %6 = alloca i64, align 8
  store i8 1, ptr %3, align 1, !tbaa !17
  %7 = tail call zeroext i1 @_mi_os_has_overcommit() #10
  %8 = load atomic i64, ptr @unix_mmap.large_page_try_ok acquire, align 8
  %9 = and i64 %1, 1073741823
  %10 = icmp eq i64 %9, 0
  br i1 %10, label %11, label %.thread79.i

11:                                               ; preds = %5
  %.b.i = load i1, ptr @unix_mmap.mi_huge_pages_available, align 1
  br i1 %.b.i, label %.thread79.i, label %12

.thread79.i:                                      ; preds = %11, %5
  br label %12

12:                                               ; preds = %.thread79.i, %11
  %.067.i = phi i32 [ 1409548322, %.thread79.i ], [ 2013528098, %11 ]
  %13 = tail call fastcc ptr @unix_mmap_prim(ptr noundef %0, i64 noundef %1, i64 noundef 33554432, i32 noundef 3, i32 noundef %.067.i) #13
  %14 = icmp eq ptr %13, null
  br i1 %14, label %15, label %unix_mmap.exit

15:                                               ; preds = %12
  %16 = and i32 %.067.i, 2013265920
  %17 = icmp eq i32 %16, 2013265920
  br i1 %17, label %18, label %.thread

.thread:                                          ; preds = %15
  store ptr null, ptr %4, align 8, !tbaa !18
  br label %35

18:                                               ; preds = %15
  store i1 true, ptr @unix_mmap.mi_huge_pages_available, align 1
  %19 = tail call ptr @__errno_location() #12
  %20 = load i32, ptr %19, align 4, !tbaa !15
  tail call void (ptr, ...) @_mi_warning_message(ptr noundef nonnull @.str.4, i32 noundef %20) #10
  %21 = tail call fastcc ptr @unix_mmap_prim(ptr noundef %0, i64 noundef %1, i64 noundef 33554432, i32 noundef 3, i32 noundef 1409548322) #13
  br label %unix_mmap.exit

unix_mmap.exit:                                   ; preds = %12, %18
  %.3.i = phi ptr [ %21, %18 ], [ %13, %12 ]
  store ptr %.3.i, ptr %4, align 8, !tbaa !18
  %22 = icmp ne ptr %.3.i, null
  %23 = icmp ult i32 %2, 64
  %or.cond3 = and i1 %23, %22
  br i1 %or.cond3, label %24, label %33

24:                                               ; preds = %unix_mmap.exit
  call void @llvm.lifetime.start.p0(i64 8, ptr nonnull %6) #11
  %25 = zext nneg i32 %2 to i64
  %26 = shl nuw i64 1, %25
  store i64 %26, ptr %6, align 8, !tbaa !22
  %27 = call i64 (i64, ...) @syscall(i64 noundef 237, ptr noundef nonnull %.3.i, i64 noundef %1, i64 noundef 1, ptr noundef nonnull %6, i64 noundef 64, i32 noundef 0) #10
  %.not = icmp eq i64 %27, 0
  br i1 %.not, label %32, label %28

28:                                               ; preds = %24
  %29 = tail call ptr @__errno_location() #12
  %30 = load i32, ptr %29, align 4, !tbaa !15
  %31 = sext i32 %30 to i64
  call void (ptr, ...) @_mi_warning_message(ptr noundef nonnull @.str, i32 noundef %2, i64 noundef %31, i64 noundef %31) #10
  br label %32

32:                                               ; preds = %28, %24
  call void @llvm.lifetime.end.p0(i64 8, ptr nonnull %6) #11
  %.pr = load ptr, ptr %4, align 8, !tbaa !18
  br label %33

33:                                               ; preds = %32, %unix_mmap.exit
  %34 = phi ptr [ %.pr, %32 ], [ %.3.i, %unix_mmap.exit ]
  %.not17 = icmp eq ptr %34, null
  br i1 %.not17, label %35, label %38

35:                                               ; preds = %.thread, %33
  %36 = tail call ptr @__errno_location() #12
  %37 = load i32, ptr %36, align 4, !tbaa !15
  br label %38

38:                                               ; preds = %33, %35
  %39 = phi i32 [ %37, %35 ], [ 0, %33 ]
  ret i32 %39
}